target datalayout = "e-m:e-p270:32:32-p271:32:32-p272:64:64-i64:64-i128:128-f80:128-n8:16:32:64-S128"
target triple = "x86_64-pc-linux-gnu"

%"class.std::basic_istream" = type { ptr, i64, %"class.std::basic_ios" }
%"class.std::basic_ios" = type { %"class.std::ios_base", ptr, i8, i8, ptr, ptr, ptr, ptr }
%"class.std::ios_base" = type { ptr, i64, i64, i32, i32, i32, ptr, %"struct.std::ios_base::_Words", [8 x %"struct.std::ios_base::_Words"], i32, ptr, %"class.std::locale" }
%"struct.std::ios_base::_Words" = type { ptr, i64 }
%"class.std::locale" = type { ptr }
%"class.std::basic_ostream" = type { ptr, %"class.std::basic_ios" }
%class.V3LexerBase = type <{ %class.FlexLexer.base, i32, i32, [4 x i8], ptr, %"class.std::basic_istream", %"class.std::basic_ostream", i8, [3 x i8], i32, ptr, i32, i32, i32, [4 x i8], i64, i64, ptr, i32, [4 x i8], ptr, ptr, ptr, ptr, ptr, i32, i32, i32, i32, i32, i32, i32, [4 x i8] }>
%class.FlexLexer.base = type <{ ptr, ptr, i32, i32, i32 }>
%class.FlexLexer = type <{ ptr, ptr, i32, i32, i32, [4 x i8] }>

; Function Attrs: mustprogress nounwind uwtable
define dso_local noundef i32 @_ZN11V3LexerBase21yy_get_previous_stateEv(ptr noundef nonnull align 8 dereferenceable(732) %0) #4 align 2 {
  %2 = alloca ptr, align 8
  %3 = alloca i32, align 4
  %4 = alloca ptr, align 8
  %5 = alloca i8, align 1
  store ptr %0, ptr %2, align 8
  %6 = load ptr, ptr %2, align 8
  %7 = getelementptr inbounds %class.V3LexerBase, ptr %6, i32 0, i32 12
  %8 = load i32, ptr %7, align 4
  store i32 %8, ptr %3, align 4
  %9 = getelementptr inbounds %class.FlexLexer, ptr %6, i32 0, i32 1
  %10 = load ptr, ptr %9, align 8
  %11 = getelementptr inbounds %class.V3LexerBase, ptr %6, i32 0, i32 29
  %12 = load i32, ptr %11, align 8
  %13 = sext i32 %12 to i64
  %14 = getelementptr inbounds i8, ptr %10, i64 %13
  store ptr %14, ptr %4, align 8
  br label %15

15:                                               ; preds = %88, %1
  %16 = load ptr, ptr %4, align 8
  %17 = getelementptr inbounds %class.V3LexerBase, ptr %6, i32 0, i32 10
  %18 = load ptr, ptr %17, align 8
  %19 = icmp ult ptr %16, %18
  br i1 %19, label %20, label %91

20:                                               ; preds = %15
  %21 = load ptr, ptr %4, align 8
  %22 = load i8, ptr %21, align 1
  %23 = icmp ne i8 %22, 0
  br i1 %23, label %24, label %31

24:                                               ; preds = %20
  %25 = load ptr, ptr %4, align 8
  %26 = load i8, ptr %25, align 1
  %27 = zext i8 %26 to i64
  %28 = getelementptr inbounds [256 x i8], ptr @_ZL5yy_ec, i64 0, i64 %27
  %29 = load i8, ptr %28, align 1
  %30 = zext i8 %29 to i32
  br label %32

31:                                               ; preds = %20
  br label %32

32:                                               ; preds = %31, %24
  %33 = phi i32 [ %30, %24 ], [ 1, %31 ]
  %34 = trunc i32 %33 to i8
  store i8 %34, ptr %5, align 1
  %35 = load i32, ptr %3, align 4
  %36 = sext i32 %35 to i64
  %37 = getelementptr inbounds [4670 x i16], ptr @_ZL9yy_accept, i64 0, i64 %36
  %38 = load i16, ptr %37, align 2
  %39 = icmp ne i16 %38, 0
  br i1 %39, label %40, label %45

40:                                               ; preds = %32
  %41 = load i32, ptr %3, align 4
  %42 = getelementptr inbounds %class.V3LexerBase, ptr %6, i32 0, i32 18
  store i32 %41, ptr %42, align 8
  %43 = load ptr, ptr %4, align 8
  %44 = getelementptr inbounds %class.V3LexerBase, ptr %6, i32 0, i32 20
  store ptr %43, ptr %44, align 8
  br label %45

45:                                               ; preds = %40, %32
  br label %46

46:                                               ; preds = %74, %45
  %47 = load i32, ptr %3, align 4
  %48 = sext i32 %47 to i64
  %49 = getelementptr inbounds [4800 x i16], ptr @_ZL7yy_base, i64 0, i64 %48
  %50 = load i16, ptr %49, align 2
  %51 = sext i16 %50 to i32
  %52 = load i8, ptr %5, align 1
  %53 = zext i8 %52 to i32
  %54 = add nsw i32 %51, %53
  %55 = sext i32 %54 to i64
  %56 = getelementptr inbounds [8949 x i16], ptr @_ZL6yy_chk, i64 0, i64 %55
  %57 = load i16, ptr %56, align 2
  %58 = sext i16 %57 to i32
  %59 = load i32, ptr %3, align 4
  %60 = icmp ne i32 %58, %59
  br i1 %60, label %61, label %75

61:                                               ; preds = %46
  %62 = load i32, ptr %3, align 4
  %63 = sext i32 %62 to i64
  %64 = getelementptr inbounds [4800 x i16], ptr @_ZL6yy_def, i64 0, i64 %63
  %65 = load i16, ptr %64, align 2
  %66 = sext i16 %65 to i32
  store i32 %66, ptr %3, align 4
  %67 = load i32, ptr %3, align 4
  %68 = icmp sge i32 %67, 4670
  br i1 %68, label %69, label %74

69:                                               ; preds = %61
  %70 = load i8, ptr %5, align 1
  %71 = zext i8 %70 to i64
  %72 = getelementptr inbounds [85 x i8], ptr @_ZL7yy_meta, i64 0, i64 %71
  %73 = load i8, ptr %72, align 1
  store i8 %73, ptr %5, align 1
  br label %74

74:                                               ; preds = %69, %61
  br label %46, !llvm.loop !10

75:                                               ; preds = %46
  %76 = load i32, ptr %3, align 4
  %77 = sext i32 %76 to i64
  %78 = getelementptr inbounds [4800 x i16], ptr @_ZL7yy_base, i64 0, i64 %77
  %79 = load i16, ptr %78, align 2
  %80 = sext i16 %79 to i32
  %81 = load i8, ptr %5, align 1
  %82 = zext i8 %81 to i32
  %83 = add nsw i32 %80, %82
  %84 = sext i32 %83 to i64
  %85 = getelementptr inbounds [8949 x i16], ptr @_ZL6yy_nxt, i64 0, i64 %84
  %86 = load i16, ptr %85, align 2
  %87 = sext i16 %86 to i32
  store i32 %87, ptr %3, align 4
  br label %88

88:                                               ; preds = %75
  %89 = load ptr, ptr %4, align 8
  %90 = getelementptr inbounds i8, ptr %89, i32 1
  store ptr %90, ptr %4, align 8
  br label %15, !llvm.loop !11

91:                                               ; preds = %15
  %92 = load i32, ptr %3, align 4
  ret i32 %92
}