; Function Attrs: mustprogress nofree norecurse nosync nounwind memory(read, argmem: readwrite, inaccessiblemem: none) uwtable
define dso_local noundef i32 @_ZN11V3LexerBase21yy_get_previous_stateEv(ptr nocapture noundef nonnull align 8 dereferenceable(732) %0) local_unnamed_addr #5 align 2 {
  %2 = getelementptr inbounds i8, ptr %0, i64 620
  %3 = load i32, ptr %2, align 4
  %4 = getelementptr inbounds i8, ptr %0, i64 8
  %5 = load ptr, ptr %4, align 8
  %6 = getelementptr inbounds i8, ptr %0, i64 720
  %7 = load i32, ptr %6, align 8
  %8 = sext i32 %7 to i64
  %9 = getelementptr inbounds i8, ptr %5, i64 %8
  %10 = getelementptr inbounds i8, ptr %0, i64 608
  %11 = load ptr, ptr %10, align 8
  %12 = icmp ult ptr %9, %11
  br i1 %12, label %.lr.ph27, label %._crit_edge28

.lr.ph27:                                         ; preds = %1
  %13 = getelementptr inbounds i8, ptr %0, i64 656
  %14 = getelementptr inbounds i8, ptr %0, i64 664
  br label %15

15:                                               ; preds = %.lr.ph27, %._crit_edge
  %.01625 = phi ptr [ %9, %.lr.ph27 ], [ %56, %._crit_edge ]
  %.01724 = phi i32 [ %3, %.lr.ph27 ], [ %55, %._crit_edge ]
  %16 = load i8, ptr %.01625, align 1
  %.not = icmp eq i8 %16, 0
  br i1 %.not, label %21, label %17

17:                                               ; preds = %15
  %18 = zext i8 %16 to i64
  %19 = getelementptr inbounds [256 x i8], ptr @_ZL5yy_ec, i64 0, i64 %18
  %20 = load i8, ptr %19, align 1
  br label %21

21:                                               ; preds = %15, %17
  %22 = phi i8 [ %20, %17 ], [ 1, %15 ]
  %23 = sext i32 %.01724 to i64
  %24 = getelementptr inbounds [4670 x i16], ptr @_ZL9yy_accept, i64 0, i64 %23
  %25 = load i16, ptr %24, align 2
  %.not20 = icmp eq i16 %25, 0
  br i1 %.not20, label %27, label %26

26:                                               ; preds = %21
  store i32 %.01724, ptr %13, align 8
  store ptr %.01625, ptr %14, align 8
  br label %27

27:                                               ; preds = %26, %21
  %28 = getelementptr inbounds [4800 x i16], ptr @_ZL7yy_base, i64 0, i64 %23
  %29 = load i16, ptr %28, align 2
  %30 = sext i16 %29 to i64
  %31 = zext i8 %22 to i64
  %32 = add nsw i64 %30, %31
  %33 = getelementptr inbounds [8949 x i16], ptr @_ZL6yy_chk, i64 0, i64 %32
  %34 = load i16, ptr %33, align 2
  %35 = sext i16 %34 to i32
  %.not2122 = icmp eq i32 %.01724, %35
  br i1 %.not2122, label %._crit_edge, label %.lr.ph

.lr.ph:                                           ; preds = %27, %44
  %36 = phi i64 [ %49, %44 ], [ %31, %27 ]
  %37 = phi i64 [ %45, %44 ], [ %23, %27 ]
  %.023 = phi i8 [ %.1, %44 ], [ %22, %27 ]
  %38 = getelementptr inbounds [4800 x i16], ptr @_ZL6yy_def, i64 0, i64 %37
  %39 = load i16, ptr %38, align 2
  %40 = icmp sgt i16 %39, 4669
  br i1 %40, label %41, label %44

41:                                               ; preds = %.lr.ph
  %42 = getelementptr inbounds [85 x i8], ptr @_ZL7yy_meta, i64 0, i64 %36
  %43 = load i8, ptr %42, align 1
  br label %44

44:                                               ; preds = %41, %.lr.ph
  %.1 = phi i8 [ %43, %41 ], [ %.023, %.lr.ph ]
  %45 = sext i16 %39 to i64
  %46 = getelementptr inbounds [4800 x i16], ptr @_ZL7yy_base, i64 0, i64 %45
  %47 = load i16, ptr %46, align 2
  %48 = sext i16 %47 to i64
  %49 = zext i8 %.1 to i64
  %50 = add nsw i64 %48, %49
  %51 = getelementptr inbounds [8949 x i16], ptr @_ZL6yy_chk, i64 0, i64 %50
  %52 = load i16, ptr %51, align 2
  %.not21 = icmp eq i16 %39, %52
  br i1 %.not21, label %._crit_edge, label %.lr.ph, !llvm.loop !15

._crit_edge:                                      ; preds = %44, %27
  %.lcssa = phi i64 [ %32, %27 ], [ %50, %44 ]
  %53 = getelementptr inbounds [8949 x i16], ptr @_ZL6yy_nxt, i64 0, i64 %.lcssa
  %54 = load i16, ptr %53, align 2
  %55 = sext i16 %54 to i32
  %56 = getelementptr inbounds i8, ptr %.01625, i64 1
  %57 = icmp ult ptr %56, %11
  br i1 %57, label %15, label %._crit_edge28, !llvm.loop !16

._crit_edge28:                                    ; preds = %._crit_edge, %1
  %.017.lcssa = phi i32 [ %3, %1 ], [ %55, %._crit_edge ]
  ret i32 %.017.lcssa
}